target datalayout = "e-m:e-p270:32:32-p271:32:32-p272:64:64-i64:64-i128:128-f80:128-n8:16:32:64-S128"
target triple = "x86_64-pc-linux-gnu"

@H5G_init_g = external global i8, align 1
@H5_libterm_g = external global i8, align 1
@.str.2 = private unnamed_addr constant [101 x i8] c"generated/home/dtcxzyw/WorkSpace/Projects/compilers/llvm-opt-benchmark/bench/hdf5/hdf5/src/H5Gnode.c\00", align 1
@H5E_SYM_g = external global i64, align 8
@__func__.H5G__node_init = private unnamed_addr constant [15 x i8] c"H5G__node_init\00", align 1
@H5E_CANTINIT_g = external global i64, align 8
@.str.9 = private unnamed_addr constant [48 x i8] c"memory allocation failed for shared B-tree info\00", align 1
@.str.10 = private unnamed_addr constant [54 x i8] c"can't create ref-count wrapper for shared B-tree info\00", align 1

; Function Attrs: nounwind uwtable
define i32 @H5G__node_init(ptr noundef %0) #0 {
  %2 = alloca ptr, align 8
  %3 = alloca ptr, align 8
  %4 = alloca i64, align 8
  %5 = alloca i32, align 4
  %6 = alloca i8, align 1
  store ptr %0, ptr %2, align 8, !tbaa !3
  call void @llvm.lifetime.start.p0(i64 8, ptr %3) #8
  call void @llvm.lifetime.start.p0(i64 8, ptr %4) #8
  call void @llvm.lifetime.start.p0(i64 4, ptr %5) #8
  store i32 0, ptr %5, align 4, !tbaa !13
  call void @llvm.lifetime.start.p0(i64 1, ptr %6) #8
  store i8 0, ptr %6, align 1, !tbaa !9
  %7 = load i8, ptr @H5G_init_g, align 1, !tbaa !9, !range !11, !noundef !12
  %8 = trunc i8 %7 to i1
  br i1 %8, label %13, label %9

9:                                                ; preds = %1
  %10 = load i8, ptr @H5_libterm_g, align 1, !tbaa !9, !range !11, !noundef !12
  %11 = trunc i8 %10 to i1
  %12 = xor i1 %11, true
  br label %13

13:                                               ; preds = %9, %1
  %14 = phi i1 [ true, %1 ], [ %12, %9 ]
  %15 = xor i1 %14, true
  %16 = xor i1 %15, true
  %17 = zext i1 %16 to i32
  %18 = sext i32 %17 to i64
  %19 = call i64 @llvm.expect.i64(i64 %18, i64 1)
  %20 = icmp ne i64 %19, 0
  br i1 %20, label %21, label %75

21:                                               ; preds = %13
  %22 = load ptr, ptr %2, align 8, !tbaa !3
  %23 = call zeroext i8 @H5F_sizeof_size(ptr noundef %22)
  %24 = zext i8 %23 to i64
  store i64 %24, ptr %4, align 8, !tbaa !21
  %25 = load ptr, ptr %2, align 8, !tbaa !3
  %26 = load i64, ptr %4, align 8, !tbaa !21
  %27 = call ptr @H5B_shared_new(ptr noundef %25, ptr noundef @H5B_SNODE, i64 noundef %26)
  store ptr %27, ptr %3, align 8, !tbaa !92
  %28 = icmp eq ptr null, %27
  br i1 %28, label %29, label %48

29:                                               ; preds = %21
  br label %30

30:                                               ; preds = %29
  br label %31

31:                                               ; preds = %30
  br label %32

32:                                               ; preds = %31
  %33 = load i64, ptr @H5E_SYM_g, align 8, !tbaa !21
  %34 = load i64, ptr @H5E_CANTINIT_g, align 8, !tbaa !21
  %35 = call i32 (ptr, ptr, i32, i64, i64, ptr, ...) @H5E_printf_stack(ptr noundef @.str.2, ptr noundef @__func__.H5G__node_init, i32 noundef 1085, i64 noundef %33, i64 noundef %34, ptr noundef @.str.9)
  br label %36

36:                                               ; preds = %32
  br label %37

37:                                               ; preds = %36
  store i8 1, ptr %6, align 1, !tbaa !9
  %38 = load i8, ptr %6, align 1, !tbaa !9, !range !11, !noundef !12
  %39 = trunc i8 %38 to i1
  %40 = zext i1 %39 to i8
  store i8 %40, ptr %6, align 1, !tbaa !9
  br label %41

41:                                               ; preds = %37
  br label %42

42:                                               ; preds = %41
  br label %43

43:                                               ; preds = %42
  store i32 -1, ptr %5, align 4, !tbaa !13
  br label %74

44:                                               ; No predecessors!
  br label %45

45:                                               ; preds = %44
  br label %46

46:                                               ; preds = %45
  br label %47

47:                                               ; preds = %46
  br label %48

48:                                               ; preds = %47, %21
  %49 = load ptr, ptr %2, align 8, !tbaa !3
  %50 = load ptr, ptr %3, align 8, !tbaa !92
  %51 = call ptr @H5UC_create(ptr noundef %50, ptr noundef @H5B_shared_free)
  %52 = call i32 @H5F_set_grp_btree_shared(ptr noundef %49, ptr noundef %51)
  %53 = icmp slt i32 %52, 0
  br i1 %53, label %54, label %73

54:                                               ; preds = %48
  br label %55

55:                                               ; preds = %54
  br label %56

56:                                               ; preds = %55
  br label %57

57:                                               ; preds = %56
  %58 = load i64, ptr @H5E_SYM_g, align 8, !tbaa !21
  %59 = load i64, ptr @H5E_CANTINIT_g, align 8, !tbaa !21
  %60 = call i32 (ptr, ptr, i32, i64, i64, ptr, ...) @H5E_printf_stack(ptr noundef @.str.2, ptr noundef @__func__.H5G__node_init, i32 noundef 1092, i64 noundef %58, i64 noundef %59, ptr noundef @.str.10)
  br label %61

61:                                               ; preds = %57
  br label %62

62:                                               ; preds = %61
  store i8 1, ptr %6, align 1, !tbaa !9
  %63 = load i8, ptr %6, align 1, !tbaa !9, !range !11, !noundef !12
  %64 = trunc i8 %63 to i1
  %65 = zext i1 %64 to i8
  store i8 %65, ptr %6, align 1, !tbaa !9
  br label %66

66:                                               ; preds = %62
  br label %67

67:                                               ; preds = %66
  br label %68

68:                                               ; preds = %67
  store i32 -1, ptr %5, align 4, !tbaa !13
  br label %74

69:                                               ; No predecessors!
  br label %70

70:                                               ; preds = %69
  br label %71

71:                                               ; preds = %70
  br label %72

72:                                               ; preds = %71
  br label %73

73:                                               ; preds = %72, %48
  br label %74

74:                                               ; preds = %73, %68, %43
  br label %75

75:                                               ; preds = %74, %13
  %76 = load i32, ptr %5, align 4, !tbaa !13
  call void @llvm.lifetime.end.p0(i64 1, ptr %6) #8
  call void @llvm.lifetime.end.p0(i64 4, ptr %5) #8
  call void @llvm.lifetime.end.p0(i64 8, ptr %4) #8
  call void @llvm.lifetime.end.p0(i64 8, ptr %3) #8
  ret i32 %76
}