; Function Attrs: nounwind uwtable
define range(i32 -1, 1) i32 @H5G__node_init(ptr noundef %0) local_unnamed_addr #0 {
  %2 = load i8, ptr @H5G_init_g, align 1, !tbaa !3, !range !7, !noundef !8
  %3 = trunc nuw i8 %2 to i1
  %4 = load i8, ptr @H5_libterm_g, align 1, !range !7
  %5 = trunc nuw i8 %4 to i1
  %6 = xor i1 %5, true
  %7 = select i1 %3, i1 true, i1 %6
  br i1 %7, label %8, label %25, !prof !9

8:                                                ; preds = %1
  %9 = tail call zeroext i8 @H5F_sizeof_size(ptr noundef %0) #9
  %10 = zext i8 %9 to i64
  %11 = tail call ptr @H5B_shared_new(ptr noundef %0, ptr noundef nonnull @H5B_SNODE, i64 noundef %10) #9
  %12 = icmp eq ptr %11, null
  br i1 %12, label %13, label %17

13:                                               ; preds = %8
  %14 = load i64, ptr @H5E_SYM_g, align 8, !tbaa !10
  %15 = load i64, ptr @H5E_CANTINIT_g, align 8, !tbaa !10
  %16 = tail call i32 (ptr, ptr, i32, i64, i64, ptr, ...) @H5E_printf_stack(ptr noundef nonnull @.str.2, ptr noundef nonnull @__func__.H5G__node_init, i32 noundef 1085, i64 noundef %14, i64 noundef %15, ptr noundef nonnull @.str.9) #9
  br label %25

17:                                               ; preds = %8
  %18 = tail call ptr @H5UC_create(ptr noundef nonnull %11, ptr noundef nonnull @H5B_shared_free) #9
  %19 = tail call i32 @H5F_set_grp_btree_shared(ptr noundef %0, ptr noundef %18) #9
  %20 = icmp slt i32 %19, 0
  br i1 %20, label %21, label %25

21:                                               ; preds = %17
  %22 = load i64, ptr @H5E_SYM_g, align 8, !tbaa !10
  %23 = load i64, ptr @H5E_CANTINIT_g, align 8, !tbaa !10
  %24 = tail call i32 (ptr, ptr, i32, i64, i64, ptr, ...) @H5E_printf_stack(ptr noundef nonnull @.str.2, ptr noundef nonnull @__func__.H5G__node_init, i32 noundef 1092, i64 noundef %22, i64 noundef %23, ptr noundef nonnull @.str.10) #9
  br label %25

25:                                               ; preds = %13, %21, %17, %1
  %.0 = phi i32 [ -1, %13 ], [ -1, %21 ], [ 0, %17 ], [ 0, %1 ]
  ret i32 %.0
}